target datalayout = "e-m:e-p270:32:32-p271:32:32-p272:64:64-i64:64-i128:128-f80:128-n8:16:32:64-S128"
target triple = "x86_64-pc-linux-gnu"

%struct.BackendGlobalData = type <{ ptr, ptr, i8, i8, i8, i8, i8, i8, i8, i8, i8, [3 x i8], i32, ptr, ptr, ptr, ptr, ptr, ptr, ptr, ptr, ptr, ptr, ptr, ptr, ptr, i32, %struct.jvmtiCapabilities, i8, [3 x i8], %struct.jvmtiEventCallbacks, ptr, ptr, ptr, ptr, ptr, ptr, ptr, i32, [4 x i8], ptr, i64, i32, [4 x i8], ptr, i32, i32, i8, i8, [6 x i8] }>
%struct.jvmtiCapabilities = type { i64, i64 }
%struct.jvmtiEventCallbacks = type { ptr, ptr, ptr, ptr, ptr, ptr, ptr, ptr, ptr, ptr, ptr, ptr, ptr, ptr, ptr, ptr, ptr, ptr, ptr, ptr, ptr, ptr, ptr, ptr, ptr, ptr, ptr, ptr, ptr, ptr, ptr, ptr, ptr, ptr, ptr, ptr, ptr, ptr, ptr }
%struct.EventInfo = type { i32, ptr, i8, ptr, ptr, i64, ptr, %union.anon }
%union.anon = type { %struct.anon.0 }
%struct.anon.0 = type { ptr, ptr, i8, %union.jvalue }
%union.jvalue = type { i64 }
%struct.anon.2 = type { %union.jvalue }

@stderr = external global ptr, align 8
@.str = private unnamed_addr constant [17 x i8] c"JDWP exit error \00", align 1
@.str.1 = private unnamed_addr constant [2 x i8] c"\0A\00", align 1
@.str.2 = private unnamed_addr constant [19 x i8] c"%s(%d): %s [%s:%d]\00", align 1
@.str.4 = private unnamed_addr constant [55 x i8] c"src/jdk.jdwp.agent/share/native/libjdwp/eventHandler.c\00", align 1
@gdata = external global ptr, align 8
@.str.6 = private unnamed_addr constant [42 x i8] c"Can't get jclass for a methodID, invalid?\00", align 1
@active_callbacks = internal global i32 0, align 4
@vm_death_callback_active = internal global i8 0, align 1
@callbackLock = internal global ptr null, align 8
@callbackBlock = internal global ptr null, align 8
@.str.25 = private unnamed_addr constant [5 x i8] c"MISC\00", align 1
@.str.28 = private unnamed_addr constant [3 x i8] c"CB\00", align 1
@.str.30 = private unnamed_addr constant [35 x i8] c"Problems tracking active callbacks\00", align 1
@.str.61 = private unnamed_addr constant [24 x i8] c"cbMethodExit: thread=%p\00", align 1
@.str.62 = private unnamed_addr constant [17 x i8] c"END cbMethodExit\00", align 1

; Function Attrs: nounwind uwtable
define hidden ptr @getMethodClass(ptr noundef %0, ptr noundef %1) #0 {
  %3 = alloca ptr, align 8
  %4 = alloca ptr, align 8
  %5 = alloca ptr, align 8
  %6 = alloca ptr, align 8
  %7 = alloca i32, align 4
  store ptr %0, ptr %4, align 8
  store ptr %1, ptr %5, align 8
  store ptr null, ptr %6, align 8
  %8 = load ptr, ptr %5, align 8
  %9 = icmp eq ptr %8, null
  br i1 %9, label %10, label %11

10:                                               ; preds = %2
  store ptr null, ptr %3, align 8
  br label %24

11:                                               ; preds = %2
  %12 = load ptr, ptr %5, align 8
  %13 = call i32 @methodClass(ptr noundef %12, ptr noundef %6)
  store i32 %13, ptr %7, align 4
  %14 = load i32, ptr %7, align 4
  %15 = icmp ne i32 %14, 0
  br i1 %15, label %16, label %22

16:                                               ; preds = %11
  %17 = load ptr, ptr @stderr, align 8
  %18 = load i32, ptr %7, align 4
  %19 = call ptr @jvmtiErrorText(i32 noundef %18)
  %20 = load i32, ptr %7, align 4
  call void (ptr, ptr, ptr, ptr, ...) @print_message(ptr noundef %17, ptr noundef @.str, ptr noundef @.str.1, ptr noundef @.str.2, ptr noundef %19, i32 noundef %20, ptr noundef @.str.6, ptr noundef @.str.4, i32 noundef 728)
  %21 = load i32, ptr %7, align 4
  call void @debugInit_exit(i32 noundef %21, ptr noundef @.str.6)
  store ptr null, ptr %3, align 8
  br label %24

22:                                               ; preds = %11
  %23 = load ptr, ptr %6, align 8
  store ptr %23, ptr %3, align 8
  br label %24

24:                                               ; preds = %22, %16, %10
  %25 = load ptr, ptr %3, align 8
  ret ptr %25
}

; Function Attrs: nounwind uwtable
define internal void @cbMethodExit(ptr noundef %0, ptr noundef %1, ptr noundef %2, ptr noundef %3, i8 noundef zeroext %4, i64 %5) #0 {
  %7 = alloca %union.jvalue, align 8
  %8 = alloca ptr, align 8
  %9 = alloca ptr, align 8
  %10 = alloca ptr, align 8
  %11 = alloca ptr, align 8
  %12 = alloca i8, align 1
  %13 = alloca %struct.EventInfo, align 8
  %14 = alloca i8, align 1
  %15 = getelementptr inbounds %union.jvalue, ptr %7, i32 0, i32 0
  store i64 %5, ptr %15, align 8
  store ptr %0, ptr %8, align 8
  store ptr %1, ptr %9, align 8
  store ptr %2, ptr %10, align 8
  store ptr %3, ptr %11, align 8
  store i8 %4, ptr %12, align 1
  %16 = load i8, ptr %12, align 1
  %17 = icmp ne i8 %16, 0
  br i1 %17, label %18, label %19

18:                                               ; preds = %6
  br label %92

19:                                               ; preds = %6
  %20 = load ptr, ptr @gdata, align 8
  %21 = getelementptr inbounds %struct.BackendGlobalData, ptr %20, i32 0, i32 38
  %22 = load i32, ptr %21, align 8
  %23 = and i32 %22, 64
  %24 = icmp ne i32 %23, 0
  br i1 %24, label %25, label %27

25:                                               ; preds = %19
  call void @log_message_begin(ptr noundef @.str.28, ptr noundef @.str.4, i32 noundef 1072)
  %26 = load ptr, ptr %10, align 8
  call void (ptr, ...) @log_message_end(ptr noundef @.str.61, ptr noundef %26)
  br label %28

27:                                               ; preds = %19
  br label %28

28:                                               ; preds = %27, %25
  store i8 1, ptr %14, align 1
  %29 = load ptr, ptr @callbackLock, align 8
  call void @debugMonitorEnter(ptr noundef %29)
  %30 = load i8, ptr @vm_death_callback_active, align 1
  %31 = icmp ne i8 %30, 0
  br i1 %31, label %32, label %36

32:                                               ; preds = %28
  %33 = load ptr, ptr @callbackLock, align 8
  call void @debugMonitorExit(ptr noundef %33)
  %34 = load ptr, ptr @callbackBlock, align 8
  call void @debugMonitorEnter(ptr noundef %34)
  %35 = load ptr, ptr @callbackBlock, align 8
  call void @debugMonitorExit(ptr noundef %35)
  br label %40

36:                                               ; preds = %28
  %37 = load i32, ptr @active_callbacks, align 4
  %38 = add nsw i32 %37, 1
  store i32 %38, ptr @active_callbacks, align 4
  store i8 0, ptr %14, align 1
  %39 = load ptr, ptr @callbackLock, align 8
  call void @debugMonitorExit(ptr noundef %39)
  br label %40

40:                                               ; preds = %36, %32
  %41 = load i8, ptr %14, align 1
  %42 = icmp ne i8 %41, 0
  br i1 %42, label %84, label %43

43:                                               ; preds = %40
  call void @llvm.memset.p0.i64(ptr align 8 %13, i8 0, i64 88, i1 false)
  %44 = getelementptr inbounds %struct.EventInfo, ptr %13, i32 0, i32 0
  store i32 14, ptr %44, align 8
  %45 = load ptr, ptr %10, align 8
  %46 = getelementptr inbounds %struct.EventInfo, ptr %13, i32 0, i32 1
  store ptr %45, ptr %46, align 8
  %47 = load ptr, ptr %8, align 8
  %48 = load ptr, ptr %11, align 8
  %49 = call ptr @getMethodClass(ptr noundef %47, ptr noundef %48)
  %50 = getelementptr inbounds %struct.EventInfo, ptr %13, i32 0, i32 3
  store ptr %49, ptr %50, align 8
  %51 = load ptr, ptr %11, align 8
  %52 = getelementptr inbounds %struct.EventInfo, ptr %13, i32 0, i32 4
  store ptr %51, ptr %52, align 8
  %53 = getelementptr inbounds %struct.EventInfo, ptr %13, i32 0, i32 7
  %54 = getelementptr inbounds %struct.anon.2, ptr %53, i32 0, i32 0
  call void @llvm.memcpy.p0.p0.i64(ptr align 8 %54, ptr align 8 %7, i64 8, i1 false)
  %55 = load ptr, ptr %9, align 8
  call void @event_callback(ptr noundef %55, ptr noundef %13)
  %56 = load ptr, ptr @callbackLock, align 8
  call void @debugMonitorEnter(ptr noundef %56)
  %57 = load i32, ptr @active_callbacks, align 4
  %58 = add nsw i32 %57, -1
  store i32 %58, ptr @active_callbacks, align 4
  %59 = load i32, ptr @active_callbacks, align 4
  %60 = icmp slt i32 %59, 0
  br i1 %60, label %61, label %64

61:                                               ; preds = %43
  %62 = load ptr, ptr @stderr, align 8
  %63 = call ptr @jvmtiErrorText(i32 noundef 0)
  call void (ptr, ptr, ptr, ptr, ...) @print_message(ptr noundef %62, ptr noundef @.str, ptr noundef @.str.1, ptr noundef @.str.2, ptr noundef %63, i32 noundef 0, ptr noundef @.str.30, ptr noundef @.str.4, i32 noundef 1082)
  call void @debugInit_exit(i32 noundef 0, ptr noundef @.str.30)
  br label %64

64:                                               ; preds = %61, %43
  %65 = load i8, ptr @vm_death_callback_active, align 1
  %66 = icmp ne i8 %65, 0
  br i1 %66, label %67, label %76

67:                                               ; preds = %64
  %68 = load i32, ptr @active_callbacks, align 4
  %69 = icmp eq i32 %68, 0
  br i1 %69, label %70, label %72

70:                                               ; preds = %67
  %71 = load ptr, ptr @callbackLock, align 8
  call void @debugMonitorNotifyAll(ptr noundef %71)
  br label %72

72:                                               ; preds = %70, %67
  %73 = load ptr, ptr @callbackLock, align 8
  call void @debugMonitorExit(ptr noundef %73)
  %74 = load ptr, ptr @callbackBlock, align 8
  call void @debugMonitorEnter(ptr noundef %74)
  %75 = load ptr, ptr @callbackBlock, align 8
  call void @debugMonitorExit(ptr noundef %75)
  br label %83

76:                                               ; preds = %64
  %77 = load i32, ptr @active_callbacks, align 4
  %78 = icmp eq i32 %77, 0
  br i1 %78, label %79, label %81

79:                                               ; preds = %76
  %80 = load ptr, ptr @callbackLock, align 8
  call void @debugMonitorNotifyAll(ptr noundef %80)
  br label %81

81:                                               ; preds = %79, %76
  %82 = load ptr, ptr @callbackLock, align 8
  call void @debugMonitorExit(ptr noundef %82)
  br label %83

83:                                               ; preds = %81, %72
  br label %84

84:                                               ; preds = %83, %40
  %85 = load ptr, ptr @gdata, align 8
  %86 = getelementptr inbounds %struct.BackendGlobalData, ptr %85, i32 0, i32 38
  %87 = load i32, ptr %86, align 8
  %88 = and i32 %87, 8
  %89 = icmp ne i32 %88, 0
  br i1 %89, label %90, label %91

90:                                               ; preds = %84
  call void @log_message_begin(ptr noundef @.str.25, ptr noundef @.str.4, i32 noundef 1084)
  call void (ptr, ...) @log_message_end(ptr noundef @.str.62)
  br label %92

91:                                               ; preds = %84
  br label %92

92:                                               ; preds = %91, %90, %18
  ret void
}