; Function Attrs: nounwind uwtable
define internal void @cbMethodExit(ptr nocapture readnone %0, ptr noundef %1, ptr noundef %2, ptr noundef %3, i8 noundef zeroext %4, i64 %5) #0 {
  %7 = alloca ptr, align 8
  %8 = alloca %struct.EventInfo, align 8
  %.not = icmp eq i8 %4, 0
  br i1 %.not, label %9, label %64

9:                                                ; preds = %6
  %10 = load ptr, ptr @gdata, align 8
  %11 = getelementptr inbounds i8, ptr %10, i64 528
  %12 = load i32, ptr %11, align 8
  %13 = and i32 %12, 64
  %.not8 = icmp eq i32 %13, 0
  br i1 %.not8, label %15, label %14

14:                                               ; preds = %9
  tail call void @log_message_begin(ptr noundef nonnull @.str.28, ptr noundef nonnull @.str.4, i32 noundef 1072) #6
  tail call void (ptr, ...) @log_message_end(ptr noundef nonnull @.str.61, ptr noundef %2) #6
  br label %15

15:                                               ; preds = %9, %14
  %16 = load ptr, ptr @callbackLock, align 8
  tail call void @debugMonitorEnter(ptr noundef %16) #6
  %.b7 = load i1, ptr @vm_death_callback_active, align 1
  br i1 %.b7, label %.thread, label %20

.thread:                                          ; preds = %15
  %17 = load ptr, ptr @callbackLock, align 8
  tail call void @debugMonitorExit(ptr noundef %17) #6
  %18 = load ptr, ptr @callbackBlock, align 8
  tail call void @debugMonitorEnter(ptr noundef %18) #6
  %19 = load ptr, ptr @callbackBlock, align 8
  tail call void @debugMonitorExit(ptr noundef %19) #6
  br label %58

20:                                               ; preds = %15
  %21 = load i32, ptr @active_callbacks, align 4
  %22 = add nsw i32 %21, 1
  store i32 %22, ptr @active_callbacks, align 4
  %23 = load ptr, ptr @callbackLock, align 8
  tail call void @debugMonitorExit(ptr noundef %23) #6
  call void @llvm.memset.p0.i64(ptr noundef nonnull align 8 dereferenceable(88) %8, i8 0, i64 88, i1 false)
  store i32 14, ptr %8, align 8
  %24 = getelementptr inbounds i8, ptr %8, i64 8
  store ptr %2, ptr %24, align 8
  call void @llvm.lifetime.start.p0(i64 8, ptr nonnull %7)
  store ptr null, ptr %7, align 8
  %25 = icmp eq ptr %3, null
  br i1 %25, label %getMethodClass.exit, label %26

26:                                               ; preds = %20
  %27 = call i32 @methodClass(ptr noundef nonnull %3, ptr noundef nonnull %7) #6
  %.not.i = icmp eq i32 %27, 0
  br i1 %.not.i, label %31, label %28

28:                                               ; preds = %26
  %29 = load ptr, ptr @stderr, align 8
  %30 = call ptr @jvmtiErrorText(i32 noundef %27) #6
  call void (ptr, ptr, ptr, ptr, ...) @print_message(ptr noundef %29, ptr noundef nonnull @.str, ptr noundef nonnull @.str.1, ptr noundef nonnull @.str.2, ptr noundef %30, i32 noundef %27, ptr noundef nonnull @.str.6, ptr noundef nonnull @.str.4, i32 noundef 728) #6
  call void @debugInit_exit(i32 noundef %27, ptr noundef nonnull @.str.6) #6
  br label %getMethodClass.exit

31:                                               ; preds = %26
  %32 = load ptr, ptr %7, align 8
  br label %getMethodClass.exit

getMethodClass.exit:                              ; preds = %20, %28, %31
  %.0.i = phi ptr [ null, %28 ], [ %32, %31 ], [ null, %20 ]
  call void @llvm.lifetime.end.p0(i64 8, ptr nonnull %7)
  %33 = getelementptr inbounds i8, ptr %8, i64 24
  store ptr %.0.i, ptr %33, align 8
  %34 = getelementptr inbounds i8, ptr %8, i64 32
  store ptr %3, ptr %34, align 8
  %35 = getelementptr inbounds i8, ptr %8, i64 56
  store i64 %5, ptr %35, align 8
  call fastcc void @event_callback(ptr noundef %1, ptr noundef nonnull %8)
  %36 = load ptr, ptr @callbackLock, align 8
  call void @debugMonitorEnter(ptr noundef %36) #6
  %37 = load i32, ptr @active_callbacks, align 4
  %38 = add nsw i32 %37, -1
  store i32 %38, ptr @active_callbacks, align 4
  %39 = icmp slt i32 %37, 1
  br i1 %39, label %40, label %43

40:                                               ; preds = %getMethodClass.exit
  %41 = load ptr, ptr @stderr, align 8
  %42 = call ptr @jvmtiErrorText(i32 noundef 0) #6
  call void (ptr, ptr, ptr, ptr, ...) @print_message(ptr noundef %41, ptr noundef nonnull @.str, ptr noundef nonnull @.str.1, ptr noundef nonnull @.str.2, ptr noundef %42, i32 noundef 0, ptr noundef nonnull @.str.30, ptr noundef nonnull @.str.4, i32 noundef 1082) #6
  call void @debugInit_exit(i32 noundef 0, ptr noundef nonnull @.str.30) #6
  br label %43

43:                                               ; preds = %40, %getMethodClass.exit
  %.b = load i1, ptr @vm_death_callback_active, align 1
  %44 = load i32, ptr @active_callbacks, align 4
  %45 = icmp eq i32 %44, 0
  br i1 %.b, label %46, label %53

46:                                               ; preds = %43
  br i1 %45, label %47, label %49

47:                                               ; preds = %46
  %48 = load ptr, ptr @callbackLock, align 8
  call void @debugMonitorNotifyAll(ptr noundef %48) #6
  br label %49

49:                                               ; preds = %47, %46
  %50 = load ptr, ptr @callbackLock, align 8
  call void @debugMonitorExit(ptr noundef %50) #6
  %51 = load ptr, ptr @callbackBlock, align 8
  call void @debugMonitorEnter(ptr noundef %51) #6
  %52 = load ptr, ptr @callbackBlock, align 8
  call void @debugMonitorExit(ptr noundef %52) #6
  br label %58

53:                                               ; preds = %43
  br i1 %45, label %54, label %56

54:                                               ; preds = %53
  %55 = load ptr, ptr @callbackLock, align 8
  call void @debugMonitorNotifyAll(ptr noundef %55) #6
  br label %56

56:                                               ; preds = %54, %53
  %57 = load ptr, ptr @callbackLock, align 8
  call void @debugMonitorExit(ptr noundef %57) #6
  br label %58

58:                                               ; preds = %.thread, %49, %56
  %59 = load ptr, ptr @gdata, align 8
  %60 = getelementptr inbounds i8, ptr %59, i64 528
  %61 = load i32, ptr %60, align 8
  %62 = and i32 %61, 8
  %.not10 = icmp eq i32 %62, 0
  br i1 %.not10, label %64, label %63

63:                                               ; preds = %58
  call void @log_message_begin(ptr noundef nonnull @.str.25, ptr noundef nonnull @.str.4, i32 noundef 1084) #6
  call void (ptr, ...) @log_message_end(ptr noundef nonnull @.str.62) #6
  br label %64

64:                                               ; preds = %58, %6, %63
  ret void
}